target datalayout = "e-m:e-p270:32:32-p271:32:32-p272:64:64-i64:64-i128:128-f80:128-n8:16:32:64-S128"
target triple = "x86_64-pc-linux-gnu"

%"class.icu_77::UnicodeString" = type { %"class.icu_77::Replaceable", %"union.icu_77::UnicodeString::StackBufferOrFields" }
%"class.icu_77::Replaceable" = type { %"class.icu_77::UObject" }
%"class.icu_77::UObject" = type { ptr }
%"union.icu_77::UnicodeString::StackBufferOrFields" = type { %struct.anon.4, [32 x i8] }
%struct.anon.4 = type { i16, i32, i32, ptr }
%"struct.icu_77::ListFormatter::ListPatternsSink" = type <{ %"class.icu_77::ResourceSink", %"class.icu_77::UnicodeString", %"class.icu_77::UnicodeString", %"class.icu_77::UnicodeString", %"class.icu_77::UnicodeString", [25 x i8], [7 x i8] }>
%"class.icu_77::ResourceSink" = type { %"class.icu_77::UObject" }

; Function Attrs: mustprogress nounwind uwtable
define hidden void @_ZN6icu_7713ListFormatter16ListPatternsSinkD2Ev(ptr noundef nonnull align 8 dereferenceable(289) %0) unnamed_addr #0 align 2 {
  %2 = alloca ptr, align 8
  store ptr %0, ptr %2, align 8, !tbaa !78
  %3 = load ptr, ptr %2, align 8
  store ptr getelementptr inbounds inrange(-16, 32) ({ [6 x ptr] }, ptr @_ZTVN6icu_7713ListFormatter16ListPatternsSinkE, i32 0, i32 0, i32 2), ptr %3, align 8, !tbaa !27
  %4 = getelementptr inbounds nuw %"struct.icu_77::ListFormatter::ListPatternsSink", ptr %3, i32 0, i32 4
  call void @_ZN6icu_7713UnicodeStringD1Ev(ptr noundef nonnull align 8 dereferenceable(64) %4) #12
  %5 = getelementptr inbounds nuw %"struct.icu_77::ListFormatter::ListPatternsSink", ptr %3, i32 0, i32 3
  call void @_ZN6icu_7713UnicodeStringD1Ev(ptr noundef nonnull align 8 dereferenceable(64) %5) #12
  %6 = getelementptr inbounds nuw %"struct.icu_77::ListFormatter::ListPatternsSink", ptr %3, i32 0, i32 2
  call void @_ZN6icu_7713UnicodeStringD1Ev(ptr noundef nonnull align 8 dereferenceable(64) %6) #12
  %7 = getelementptr inbounds nuw %"struct.icu_77::ListFormatter::ListPatternsSink", ptr %3, i32 0, i32 1
  call void @_ZN6icu_7713UnicodeStringD1Ev(ptr noundef nonnull align 8 dereferenceable(64) %7) #12
  call void @_ZN6icu_7712ResourceSinkD2Ev(ptr noundef nonnull align 8 dereferenceable(8) %3) #12
  ret void
}